; Function Attrs: mustprogress uwtable
define hidden noundef zeroext i1 @_ZN18OpenImageIO_v2_6_08PSDInput18load_resource_1006Ej(ptr noundef nonnull align 8 dereferenceable(840) %this, i32 noundef %length) #5 align 2 personality ptr @__gxx_personality_v0 {
entry:
  %name = alloca %"class.std::__cxx11::basic_string", align 8
  call void @_ZNSt7__cxx1112basic_stringIcSt11char_traitsIcESaIcEEC1Ev(ptr noundef nonnull align 8 dereferenceable(32) %name) #28
  %cmp3 = icmp sgt i32 %length, 1
  br i1 %cmp3, label %while.body.lr.ph, label %while.end

while.body.lr.ph:                                 ; preds = %entry
  %_M_finish.i = getelementptr inbounds i8, ptr %this, i64 616
  %_M_end_of_storage.i = getelementptr inbounds i8, ptr %this, i64 624
  %m_alpha_names = getelementptr inbounds i8, ptr %this, i64 608
  br label %while.body

while.body:                                       ; preds = %while.body.lr.ph, %_ZNSt6vectorINSt7__cxx1112basic_stringIcSt11char_traitsIcESaIcEEESaIS5_EE9push_backERKS5_.exit
  %bytes_remaining.04 = phi i32 [ %length, %while.body.lr.ph ], [ %sub, %_ZNSt6vectorINSt7__cxx1112basic_stringIcSt11char_traitsIcESaIcEEESaIS5_EE9push_backERKS5_.exit ]
  %call = invoke noundef i32 @_ZN18OpenImageIO_v2_6_08PSDInput18read_pascal_stringERNSt7__cxx1112basic_stringIcSt11char_traitsIcESaIcEEEt(ptr noundef nonnull align 8 dereferenceable(840) %this, ptr noundef nonnull align 8 dereferenceable(32) %name, i16 noundef zeroext 1)
          to label %invoke.cont unwind label %lpad

invoke.cont:                                      ; preds = %while.body
  %sub = sub nsw i32 %bytes_remaining.04, %call
  %0 = load ptr, ptr %_M_finish.i, align 8
  %1 = load ptr, ptr %_M_end_of_storage.i, align 8
  %cmp.not.i = icmp eq ptr %0, %1
  br i1 %cmp.not.i, label %if.else.i, label %if.then.i

if.then.i:                                        ; preds = %invoke.cont
  invoke void @_ZNSt7__cxx1112basic_stringIcSt11char_traitsIcESaIcEEC1ERKS4_(ptr noundef nonnull align 8 dereferenceable(32) %0, ptr noundef nonnull align 8 dereferenceable(32) %name)
          to label %.noexc unwind label %lpad

.noexc:                                           ; preds = %if.then.i
  %2 = load ptr, ptr %_M_finish.i, align 8
  %incdec.ptr.i = getelementptr inbounds i8, ptr %2, i64 32
  store ptr %incdec.ptr.i, ptr %_M_finish.i, align 8
  br label %_ZNSt6vectorINSt7__cxx1112basic_stringIcSt11char_traitsIcESaIcEEESaIS5_EE9push_backERKS5_.exit

if.else.i:                                        ; preds = %invoke.cont
  invoke void @_ZNSt6vectorINSt7__cxx1112basic_stringIcSt11char_traitsIcESaIcEEESaIS5_EE17_M_realloc_insertIJRKS5_EEEvN9__gnu_cxx17__normal_iteratorIPS5_S7_EEDpOT_(ptr noundef nonnull align 8 dereferenceable(24) %m_alpha_names, ptr %0, ptr noundef nonnull align 8 dereferenceable(32) %name)
          to label %_ZNSt6vectorINSt7__cxx1112basic_stringIcSt11char_traitsIcESaIcEEESaIS5_EE9push_backERKS5_.exit unwind label %lpad

_ZNSt6vectorINSt7__cxx1112basic_stringIcSt11char_traitsIcESaIcEEESaIS5_EE9push_backERKS5_.exit: ; preds = %if.else.i, %.noexc
  %cmp = icmp sgt i32 %sub, 1
  br i1 %cmp, label %while.body, label %while.end

lpad:                                             ; preds = %if.else.i, %if.then.i, %while.body
  %3 = landingpad { ptr, i32 }
          cleanup
  call void @_ZNSt7__cxx1112basic_stringIcSt11char_traitsIcESaIcEED1Ev(ptr noundef nonnull align 8 dereferenceable(32) %name) #28
  resume { ptr, i32 } %3

while.end:                                        ; preds = %_ZNSt6vectorINSt7__cxx1112basic_stringIcSt11char_traitsIcESaIcEEESaIS5_EE9push_backERKS5_.exit, %entry
  call void @_ZNSt7__cxx1112basic_stringIcSt11char_traitsIcESaIcEED1Ev(ptr noundef nonnull align 8 dereferenceable(32) %name) #28
  ret i1 true
}